(itasks
Status
p0
(dp1
S'chats'
p2
(dp3
S'3170bbe1b0e870f9f31994c779b2f59c'
p4
ccollections
OrderedDict
p5
((lp6
(lp7
S'acampagna_citymaps'
p8
a(itasks
Job
p9
(dp10
S'started'
p11
cdatetime
datetime
p12
(S'\x07\xde\x03\x07\x00\x1c\x13\r\x8a\xfc'
p13
tp14
Rp15
sS'warned'
p16
I00
sS'real_name'
p17
VAnthony Campagna
p18
sS'desc'
p19
Vkilling raja first before task killing anthony first, brb
p20
sbaa(lp21
S'raja.h_citymaps'
p22
a(itasks
Job
p23
(dp24
g11
g12
(S'\x07\xde\x03\x07\x00\x1b:\x01\x87\x0c'
p25
tp26
Rp27
sg16
I00
sg17
VRaja Hamid
p28
sg19
VKilling anthony first, brb
p29
sbaatp30
Rp31
sS'80ef1381b121c3e65043c49bd4103429'
p32
g5
((lp33
(lp34
S'bengundersen'
p35
a(itasks
Job
p36
(dp37
g11
g12
(S'\x07\xde\x03\x07\x00\x19&\x00\xf6\xef'
p38
tp39
Rp40
sg16
I00
sg17
VBen Gundersen
p41
sg19
Vthis is my new task
p42
sbaatp43
Rp44
ssb.